target datalayout = "e-m:e-p270:32:32-p271:32:32-p272:64:64-i64:64-i128:128-f80:128-n8:16:32:64-S128"
target triple = "x86_64-pc-linux-gnu"

@hf_mpeg_descr_carousel_identifier_id = internal global i32 0, align 4
@hf_mpeg_descr_carousel_identifier_format_id = internal global i32 0, align 4
@hf_mpeg_descr_carousel_identifier_module_version = internal global i32 0, align 4
@hf_mpeg_descr_carousel_identifier_module_id = internal global i32 0, align 4
@hf_mpeg_descr_carousel_identifier_block_size = internal global i32 0, align 4
@hf_mpeg_descr_carousel_identifier_module_size = internal global i32 0, align 4
@hf_mpeg_descr_carousel_identifier_compression_method = internal global i32 0, align 4
@hf_mpeg_descr_carousel_identifier_original_size = internal global i32 0, align 4
@hf_mpeg_descr_carousel_identifier_timeout = internal global i32 0, align 4
@hf_mpeg_descr_carousel_identifier_object_key_len = internal global i32 0, align 4
@hf_mpeg_descr_carousel_identifier_object_key_data = internal global i32 0, align 4
@hf_mpeg_descr_carousel_identifier_private = internal global i32 0, align 4

; Function Attrs: null_pointer_is_valid sspstrong uwtable
define internal void @proto_mpeg_descriptor_dissect_carousel_identifier(ptr noundef %0, i32 noundef %1, i32 noundef %2, ptr noundef %3) #1 {
  %5 = alloca ptr, align 8
  %6 = alloca i32, align 4
  %7 = alloca i32, align 4
  %8 = alloca ptr, align 8
  %9 = alloca i32, align 4
  %10 = alloca i8, align 1
  %11 = alloca i32, align 4
  store ptr %0, ptr %5, align 8
  store i32 %1, ptr %6, align 4
  store i32 %2, ptr %7, align 4
  store ptr %3, ptr %8, align 8
  call void @llvm.lifetime.start.p0(i64 4, ptr %9) #4
  call void @llvm.lifetime.start.p0(i64 1, ptr %10) #4
  call void @llvm.lifetime.start.p0(i64 4, ptr %11) #4
  store i32 0, ptr %11, align 4
  %12 = load ptr, ptr %8, align 8
  %13 = load i32, ptr @hf_mpeg_descr_carousel_identifier_id, align 4
  %14 = load ptr, ptr %5, align 8
  %15 = load i32, ptr %6, align 4
  %16 = call ptr @proto_tree_add_item(ptr noundef %12, i32 noundef %13, ptr noundef %14, i32 noundef %15, i32 noundef 4, i32 noundef 0)
  %17 = load i32, ptr %6, align 4
  %18 = add i32 %17, 4
  store i32 %18, ptr %6, align 4
  %19 = load ptr, ptr %5, align 8
  %20 = load i32, ptr %6, align 4
  %21 = call zeroext i8 @tvb_get_uint8(ptr noundef %19, i32 noundef %20)
  store i8 %21, ptr %10, align 1
  %22 = load ptr, ptr %8, align 8
  %23 = load i32, ptr @hf_mpeg_descr_carousel_identifier_format_id, align 4
  %24 = load ptr, ptr %5, align 8
  %25 = load i32, ptr %6, align 4
  %26 = call ptr @proto_tree_add_item(ptr noundef %22, i32 noundef %23, ptr noundef %24, i32 noundef %25, i32 noundef 1, i32 noundef 0)
  %27 = load i32, ptr %6, align 4
  %28 = add i32 %27, 1
  store i32 %28, ptr %6, align 4
  %29 = load i8, ptr %10, align 1
  %30 = zext i8 %29 to i32
  %31 = icmp eq i32 %30, 1
  br i1 %31, label %32, label %112

32:                                               ; preds = %4
  %33 = load ptr, ptr %8, align 8
  %34 = load i32, ptr @hf_mpeg_descr_carousel_identifier_module_version, align 4
  %35 = load ptr, ptr %5, align 8
  %36 = load i32, ptr %6, align 4
  %37 = call ptr @proto_tree_add_item(ptr noundef %33, i32 noundef %34, ptr noundef %35, i32 noundef %36, i32 noundef 1, i32 noundef 0)
  %38 = load i32, ptr %6, align 4
  %39 = add i32 %38, 1
  store i32 %39, ptr %6, align 4
  %40 = load ptr, ptr %8, align 8
  %41 = load i32, ptr @hf_mpeg_descr_carousel_identifier_module_id, align 4
  %42 = load ptr, ptr %5, align 8
  %43 = load i32, ptr %6, align 4
  %44 = call ptr @proto_tree_add_item(ptr noundef %40, i32 noundef %41, ptr noundef %42, i32 noundef %43, i32 noundef 2, i32 noundef 0)
  %45 = load i32, ptr %6, align 4
  %46 = add i32 %45, 2
  store i32 %46, ptr %6, align 4
  %47 = load ptr, ptr %8, align 8
  %48 = load i32, ptr @hf_mpeg_descr_carousel_identifier_block_size, align 4
  %49 = load ptr, ptr %5, align 8
  %50 = load i32, ptr %6, align 4
  %51 = call ptr @proto_tree_add_item(ptr noundef %47, i32 noundef %48, ptr noundef %49, i32 noundef %50, i32 noundef 2, i32 noundef 0)
  %52 = load i32, ptr %6, align 4
  %53 = add i32 %52, 2
  store i32 %53, ptr %6, align 4
  %54 = load ptr, ptr %8, align 8
  %55 = load i32, ptr @hf_mpeg_descr_carousel_identifier_module_size, align 4
  %56 = load ptr, ptr %5, align 8
  %57 = load i32, ptr %6, align 4
  %58 = call ptr @proto_tree_add_item(ptr noundef %54, i32 noundef %55, ptr noundef %56, i32 noundef %57, i32 noundef 4, i32 noundef 0)
  %59 = load i32, ptr %6, align 4
  %60 = add i32 %59, 4
  store i32 %60, ptr %6, align 4
  %61 = load ptr, ptr %8, align 8
  %62 = load i32, ptr @hf_mpeg_descr_carousel_identifier_compression_method, align 4
  %63 = load ptr, ptr %5, align 8
  %64 = load i32, ptr %6, align 4
  %65 = call ptr @proto_tree_add_item(ptr noundef %61, i32 noundef %62, ptr noundef %63, i32 noundef %64, i32 noundef 1, i32 noundef 0)
  %66 = load i32, ptr %6, align 4
  %67 = add i32 %66, 1
  store i32 %67, ptr %6, align 4
  %68 = load ptr, ptr %8, align 8
  %69 = load i32, ptr @hf_mpeg_descr_carousel_identifier_original_size, align 4
  %70 = load ptr, ptr %5, align 8
  %71 = load i32, ptr %6, align 4
  %72 = call ptr @proto_tree_add_item(ptr noundef %68, i32 noundef %69, ptr noundef %70, i32 noundef %71, i32 noundef 4, i32 noundef 0)
  %73 = load i32, ptr %6, align 4
  %74 = add i32 %73, 4
  store i32 %74, ptr %6, align 4
  %75 = load ptr, ptr %8, align 8
  %76 = load i32, ptr @hf_mpeg_descr_carousel_identifier_timeout, align 4
  %77 = load ptr, ptr %5, align 8
  %78 = load i32, ptr %6, align 4
  %79 = call ptr @proto_tree_add_item(ptr noundef %75, i32 noundef %76, ptr noundef %77, i32 noundef %78, i32 noundef 1, i32 noundef 0)
  %80 = load i32, ptr %6, align 4
  %81 = add i32 %80, 1
  store i32 %81, ptr %6, align 4
  %82 = load ptr, ptr %5, align 8
  %83 = load i32, ptr %6, align 4
  %84 = call zeroext i8 @tvb_get_uint8(ptr noundef %82, i32 noundef %83)
  %85 = zext i8 %84 to i32
  store i32 %85, ptr %9, align 4
  %86 = load ptr, ptr %8, align 8
  %87 = load i32, ptr @hf_mpeg_descr_carousel_identifier_object_key_len, align 4
  %88 = load ptr, ptr %5, align 8
  %89 = load i32, ptr %6, align 4
  %90 = call ptr @proto_tree_add_item(ptr noundef %86, i32 noundef %87, ptr noundef %88, i32 noundef %89, i32 noundef 1, i32 noundef 0)
  %91 = load i32, ptr %6, align 4
  %92 = add i32 %91, 1
  store i32 %92, ptr %6, align 4
  %93 = load ptr, ptr %8, align 8
  %94 = load i32, ptr @hf_mpeg_descr_carousel_identifier_object_key_data, align 4
  %95 = load ptr, ptr %5, align 8
  %96 = load i32, ptr %6, align 4
  %97 = load i32, ptr %9, align 4
  %98 = call ptr @proto_tree_add_item(ptr noundef %93, i32 noundef %94, ptr noundef %95, i32 noundef %96, i32 noundef %97, i32 noundef 0)
  %99 = load i32, ptr %9, align 4
  %100 = load i32, ptr %6, align 4
  %101 = add i32 %100, %99
  store i32 %101, ptr %6, align 4
  %102 = load i32, ptr %7, align 4
  %103 = load i32, ptr %9, align 4
  %104 = add i32 %103, 20
  %105 = icmp ugt i32 %102, %104
  br i1 %105, label %106, label %111

106:                                              ; preds = %32
  %107 = load i32, ptr %7, align 4
  %108 = sub i32 %107, 20
  %109 = load i32, ptr %9, align 4
  %110 = sub i32 %108, %109
  store i32 %110, ptr %11, align 4
  br label %111

111:                                              ; preds = %106, %32
  br label %119

112:                                              ; preds = %4
  %113 = load i32, ptr %7, align 4
  %114 = icmp ugt i32 %113, 5
  br i1 %114, label %115, label %118

115:                                              ; preds = %112
  %116 = load i32, ptr %7, align 4
  %117 = sub i32 %116, 5
  store i32 %117, ptr %11, align 4
  br label %118

118:                                              ; preds = %115, %112
  br label %119

119:                                              ; preds = %118, %111
  %120 = load i32, ptr %11, align 4
  %121 = icmp ne i32 %120, 0
  br i1 %121, label %122, label %129

122:                                              ; preds = %119
  %123 = load ptr, ptr %8, align 8
  %124 = load i32, ptr @hf_mpeg_descr_carousel_identifier_private, align 4
  %125 = load ptr, ptr %5, align 8
  %126 = load i32, ptr %6, align 4
  %127 = load i32, ptr %11, align 4
  %128 = call ptr @proto_tree_add_item(ptr noundef %123, i32 noundef %124, ptr noundef %125, i32 noundef %126, i32 noundef %127, i32 noundef 0)
  br label %129

129:                                              ; preds = %122, %119
  call void @llvm.lifetime.end.p0(i64 4, ptr %11) #4
  call void @llvm.lifetime.end.p0(i64 1, ptr %10) #4
  call void @llvm.lifetime.end.p0(i64 4, ptr %9) #4
  ret void
}