; Function Attrs: null_pointer_is_valid sspstrong uwtable
define internal fastcc void @proto_mpeg_descriptor_dissect_carousel_identifier(ptr noundef %0, i32 noundef %1, i32 noundef range(i32 1, 256) %2, ptr noundef %3) unnamed_addr #1 {
  %5 = load i32, ptr @hf_mpeg_descr_carousel_identifier_id, align 4
  %6 = tail call ptr @proto_tree_add_item(ptr noundef %3, i32 noundef %5, ptr noundef %0, i32 noundef %1, i32 noundef 4, i32 noundef 0)
  %7 = add i32 %1, 4
  %8 = tail call zeroext i8 @tvb_get_uint8(ptr noundef %0, i32 noundef %7)
  %9 = load i32, ptr @hf_mpeg_descr_carousel_identifier_format_id, align 4
  %10 = tail call ptr @proto_tree_add_item(ptr noundef %3, i32 noundef %9, ptr noundef %0, i32 noundef %7, i32 noundef 1, i32 noundef 0)
  %11 = add i32 %1, 5
  %12 = icmp eq i8 %8, 1
  br i1 %12, label %13, label %44

13:                                               ; preds = %4
  %14 = load i32, ptr @hf_mpeg_descr_carousel_identifier_module_version, align 4
  %15 = tail call ptr @proto_tree_add_item(ptr noundef %3, i32 noundef %14, ptr noundef %0, i32 noundef %11, i32 noundef 1, i32 noundef 0)
  %16 = add i32 %1, 6
  %17 = load i32, ptr @hf_mpeg_descr_carousel_identifier_module_id, align 4
  %18 = tail call ptr @proto_tree_add_item(ptr noundef %3, i32 noundef %17, ptr noundef %0, i32 noundef %16, i32 noundef 2, i32 noundef 0)
  %19 = add i32 %1, 8
  %20 = load i32, ptr @hf_mpeg_descr_carousel_identifier_block_size, align 4
  %21 = tail call ptr @proto_tree_add_item(ptr noundef %3, i32 noundef %20, ptr noundef %0, i32 noundef %19, i32 noundef 2, i32 noundef 0)
  %22 = add i32 %1, 10
  %23 = load i32, ptr @hf_mpeg_descr_carousel_identifier_module_size, align 4
  %24 = tail call ptr @proto_tree_add_item(ptr noundef %3, i32 noundef %23, ptr noundef %0, i32 noundef %22, i32 noundef 4, i32 noundef 0)
  %25 = add i32 %1, 14
  %26 = load i32, ptr @hf_mpeg_descr_carousel_identifier_compression_method, align 4
  %27 = tail call ptr @proto_tree_add_item(ptr noundef %3, i32 noundef %26, ptr noundef %0, i32 noundef %25, i32 noundef 1, i32 noundef 0)
  %28 = add i32 %1, 15
  %29 = load i32, ptr @hf_mpeg_descr_carousel_identifier_original_size, align 4
  %30 = tail call ptr @proto_tree_add_item(ptr noundef %3, i32 noundef %29, ptr noundef %0, i32 noundef %28, i32 noundef 4, i32 noundef 0)
  %31 = add i32 %1, 19
  %32 = load i32, ptr @hf_mpeg_descr_carousel_identifier_timeout, align 4
  %33 = tail call ptr @proto_tree_add_item(ptr noundef %3, i32 noundef %32, ptr noundef %0, i32 noundef %31, i32 noundef 1, i32 noundef 0)
  %34 = add i32 %1, 20
  %35 = tail call zeroext i8 @tvb_get_uint8(ptr noundef %0, i32 noundef %34)
  %36 = zext i8 %35 to i32
  %37 = load i32, ptr @hf_mpeg_descr_carousel_identifier_object_key_len, align 4
  %38 = tail call ptr @proto_tree_add_item(ptr noundef %3, i32 noundef %37, ptr noundef %0, i32 noundef %34, i32 noundef 1, i32 noundef 0)
  %39 = add i32 %1, 21
  %40 = load i32, ptr @hf_mpeg_descr_carousel_identifier_object_key_data, align 4
  %41 = tail call ptr @proto_tree_add_item(ptr noundef %3, i32 noundef %40, ptr noundef %0, i32 noundef %39, i32 noundef %36, i32 noundef 0)
  %42 = add nuw nsw i32 %36, 20
  %43 = icmp samesign ugt i32 %2, %42
  br i1 %43, label %47, label %.thread

44:                                               ; preds = %4
  %45 = icmp samesign ugt i32 %2, 5
  %46 = add nsw i32 %2, -5
  br i1 %45, label %.thread66, label %.thread

47:                                               ; preds = %13
  %48 = add i32 %39, %36
  %49 = add nsw i32 %2, -20
  %50 = sub nsw i32 %49, %36
  %.not = icmp eq i32 %50, 0
  br i1 %.not, label %.thread, label %.thread66

.thread66:                                        ; preds = %44, %47
  %.071 = phi i32 [ %50, %47 ], [ %46, %44 ]
  %.06170 = phi i32 [ %48, %47 ], [ %11, %44 ]
  %51 = load i32, ptr @hf_mpeg_descr_carousel_identifier_private, align 4
  %52 = tail call ptr @proto_tree_add_item(ptr noundef %3, i32 noundef %51, ptr noundef %0, i32 noundef %.06170, i32 noundef %.071, i32 noundef 0)
  br label %.thread

.thread:                                          ; preds = %44, %13, %.thread66, %47
  ret void
}